#include <math.h>
#include <stdio.h>
#include <stdlib.h>
#include <string.h>

int main()
{
	int sz[100],i,n,t;
	scanf("%d",&n);

	for(i=0;i<n;i++)
	{
		scanf("%d",&sz[i]);
	}

	if(n%2==0)
	{
		for(i=0;i<(n/2);i++)
		{
			t=sz[i];
			sz[i]=sz[n-1-i];
			sz[n-1-i]=t;
		}

	}
	else if(n%2!=0)
	{
		for(i=0;i<((n-1)/2);i++)
		{
			t=sz[i];
			sz[i]=sz[n-1-i];
			sz[n-1-i]=t;
		}
	}

	for(i=0;i<n;i++)
	{
		if(i==0)
		{
			printf("%d",sz[i]);
		}
		else
		{
			printf(" %d",sz[i]);
		}
	}

	return 0;
}